target datalayout = "e-m:e-p270:32:32-p271:32:32-p272:64:64-i64:64-i128:128-f80:128-n8:16:32:64-S128"
target triple = "x86_64-pc-linux-gnu"

; Function Attrs: alwaysinline nounwind uwtable
define internal void @te_assert_invariants(ptr noundef %0) #2 {
  %2 = alloca ptr, align 8
  store ptr %0, ptr %2, align 8, !tbaa !4
  ret void
}

; Function Attrs: nounwind uwtable
define hidden void @je_tsd_te_init(ptr noundef %0) #0 {
  %2 = alloca ptr, align 8
  store ptr %0, ptr %2, align 8, !tbaa !4
  br label %3

3:                                                ; preds = %1
  br label %4

4:                                                ; preds = %3
  %5 = load ptr, ptr %2, align 8, !tbaa !4
  call void @te_init(ptr noundef %5, i1 noundef zeroext true)
  %6 = load ptr, ptr %2, align 8, !tbaa !4
  call void @te_init(ptr noundef %6, i1 noundef zeroext false)
  %7 = load ptr, ptr %2, align 8, !tbaa !4
  call void @te_assert_invariants(ptr noundef %7)
  ret void
}