; Function Attrs: nounwind uwtable
define hidden void @je_tsd_te_init(ptr noundef %0) local_unnamed_addr #2 {
  tail call fastcc void @te_init(ptr noundef %0, i1 noundef zeroext true)
  %2 = getelementptr inbounds nuw i8, ptr %0, i64 912
  %3 = getelementptr inbounds nuw i8, ptr %0, i64 24
  %4 = getelementptr inbounds nuw i8, ptr %0, i64 32
  %5 = load i64, ptr %2, align 8, !tbaa !7
  store i64 %5, ptr %3, align 8, !tbaa !7
  %6 = load i64, ptr @je_opt_tcache_gc_incr_bytes, align 8
  %7 = icmp eq i64 %6, 0
  br i1 %7, label %11, label %8

8:                                                ; preds = %1
  %9 = tail call i64 @je_tcache_gc_dalloc_new_event_wait(ptr noundef nonnull %0) #5
  %10 = getelementptr inbounds nuw i8, ptr %0, i64 48
  store i64 %9, ptr %10, align 8, !tbaa !7
  br label %11

11:                                               ; preds = %8, %1
  %.6.ph.i = phi i64 [ -1, %1 ], [ %9, %8 ]
  %12 = tail call i64 @je_peak_dalloc_new_event_wait(ptr noundef nonnull %0) #5
  %13 = getelementptr inbounds nuw i8, ptr %0, i64 104
  store i64 %12, ptr %13, align 8, !tbaa !7
  %spec.select68.i = tail call i64 @llvm.umin.i64(i64 %12, i64 %.6.ph.i)
  %.val.val.i = load i64, ptr %3, align 8, !tbaa !7
  %14 = tail call i64 @llvm.umin.i64(i64 %spec.select68.i, i64 4194304)
  %15 = add i64 %14, %.val.val.i
  store i64 %15, ptr %4, align 8, !tbaa !7
  %16 = getelementptr inbounds nuw i8, ptr %0, i64 888
  %17 = load i8, ptr %16, align 8, !tbaa !4
  %.not.i.i.i = icmp eq i8 %17, 0
  br i1 %.not.i.i.i, label %21, label %18

18:                                               ; preds = %11
  %19 = getelementptr inbounds nuw i8, ptr %0, i64 904
  store i64 0, ptr %19, align 8, !tbaa !7
  %20 = getelementptr inbounds nuw i8, ptr %0, i64 920
  store i64 0, ptr %20, align 8, !tbaa !7
  br label %te_init.exit

21:                                               ; preds = %11
  %22 = getelementptr inbounds nuw i8, ptr %0, i64 16
  %23 = getelementptr inbounds nuw i8, ptr %0, i64 904
  %.val.val.i.i.i = load i64, ptr %22, align 8, !tbaa !7
  %24 = icmp ult i64 %.val.val.i.i.i, -4095
  %25 = select i1 %24, i64 %.val.val.i.i.i, i64 0
  store i64 %25, ptr %23, align 8, !tbaa !7
  %26 = getelementptr inbounds nuw i8, ptr %0, i64 920
  %27 = icmp ult i64 %15, -4095
  %28 = select i1 %27, i64 %15, i64 0
  store i64 %28, ptr %26, align 8, !tbaa !7
  fence seq_cst
  %29 = load i8, ptr %16, align 8, !tbaa !4
  %.not6.i.i.i = icmp eq i8 %29, 0
  br i1 %.not6.i.i.i, label %te_init.exit, label %30

30:                                               ; preds = %21
  store i64 0, ptr %23, align 8, !tbaa !7
  store i64 0, ptr %26, align 8, !tbaa !7
  br label %te_init.exit

te_init.exit:                                     ; preds = %18, %21, %30
  ret void
}